; Function Attrs: nounwind uwtable
define ptr @l_Lean_Compiler_LCNF_forEachMainModuleDecl___boxed(ptr noundef %0, ptr noundef %1, ptr noundef %2, ptr noundef %3, ptr noundef %4) local_unnamed_addr #1 {
  %6 = ptrtoint ptr %1 to i64
  %7 = and i64 %6, 1
  %.not = icmp eq i64 %7, 0
  br i1 %.not, label %8, label %lean_dec.exit

8:                                                ; preds = %5
  %9 = load i32, ptr %1, align 4, !tbaa !4
  %10 = icmp sgt i32 %9, 1
  br i1 %10, label %11, label %13, !prof !11

11:                                               ; preds = %8
  %12 = add nsw i32 %9, -1
  store i32 %12, ptr %1, align 4, !tbaa !4
  br label %lean_dec.exit

13:                                               ; preds = %8
  %.not.i = icmp eq i32 %9, 0
  br i1 %.not.i, label %lean_dec.exit, label %14

14:                                               ; preds = %13
  tail call void @lean_dec_ref_cold(ptr noundef nonnull %1) #6
  br label %lean_dec.exit

lean_dec.exit:                                    ; preds = %14, %13, %11, %5
  %15 = lshr i64 %6, 1
  %16 = trunc i64 %15 to i8
  %17 = tail call ptr @l_Lean_Compiler_LCNF_forEachMainModuleDecl(ptr noundef %0, i8 noundef zeroext %16, ptr noundef %2, ptr noundef %3, ptr noundef %4)
  ret ptr %17
}